target datalayout = "e-m:e-p270:32:32-p271:32:32-p272:64:64-i64:64-i128:128-f80:128-n8:16:32:64-S128"
target triple = "x86_64-pc-linux-gnu"

%"class.rocksdb::Status" = type { i8, i8, i8, i8, i8, i8, %"class.std::unique_ptr.198" }
%"class.std::unique_ptr.198" = type { %"struct.std::__uniq_ptr_data.199" }
%"struct.std::__uniq_ptr_data.199" = type { %"class.std::__uniq_ptr_impl.200" }
%"class.std::__uniq_ptr_impl.200" = type { %"class.std::tuple.201" }
%"class.std::tuple.201" = type { %"struct.std::_Tuple_impl.202" }
%"struct.std::_Tuple_impl.202" = type { %"struct.std::_Head_base.205" }
%"struct.std::_Head_base.205" = type { ptr }
%class.anon.490 = type { ptr, ptr, ptr, ptr }

; Function Attrs: inlinehint mustprogress uwtable
define internal void @"_ZZN7rocksdb18WriteUnpreparedTxn6DeleteEPNS_18ColumnFamilyHandleERKNS_10SlicePartsEbENK3$_0clEv"(ptr dead_on_unwind noalias writable sret(%"class.rocksdb::Status") align 8 %0, ptr noundef nonnull align 8 dereferenceable(32) %1) #6 align 2 {
  %3 = alloca ptr, align 8
  %4 = alloca ptr, align 8
  store ptr %0, ptr %3, align 8
  store ptr %1, ptr %4, align 8, !tbaa !32
  %5 = load ptr, ptr %4, align 8
  %6 = getelementptr inbounds nuw %class.anon.490, ptr %5, i32 0, i32 0
  %7 = load ptr, ptr %6, align 8, !tbaa !370
  %8 = getelementptr inbounds nuw %class.anon.490, ptr %5, i32 0, i32 1
  %9 = load ptr, ptr %8, align 8, !tbaa !1244
  %10 = load ptr, ptr %9, align 8, !tbaa !354
  %11 = getelementptr inbounds nuw %class.anon.490, ptr %5, i32 0, i32 2
  %12 = load ptr, ptr %11, align 8, !tbaa !1245
  %13 = getelementptr inbounds nuw %class.anon.490, ptr %5, i32 0, i32 3
  %14 = load ptr, ptr %13, align 8, !tbaa !1246
  %15 = load i8, ptr %14, align 1, !tbaa !63, !range !67, !noundef !68
  %16 = trunc i8 %15 to i1
  call void @_ZN7rocksdb19TransactionBaseImpl6DeleteEPNS_18ColumnFamilyHandleERKNS_10SlicePartsEb(ptr dead_on_unwind writable sret(%"class.rocksdb::Status") align 8 %0, ptr noundef nonnull align 8 dereferenceable(400) %7, ptr noundef %10, ptr noundef nonnull align 8 dereferenceable(12) %12, i1 noundef zeroext %16)
  ret void
}

; Function Attrs: mustprogress nounwind uwtable
define linkonce_odr noundef ptr @_ZNKSt9_Any_data9_M_accessEv(ptr noundef nonnull align 8 dereferenceable(16) %0) #3 comdat align 2 {
  %2 = alloca ptr, align 8
  store ptr %0, ptr %2, align 8, !tbaa !1219
  %3 = load ptr, ptr %2, align 8
  %4 = getelementptr inbounds [16 x i8], ptr %3, i64 0, i64 0
  ret ptr %4
}

; Function Attrs: mustprogress uwtable
define internal void @"_ZSt13__invoke_implIN7rocksdb6StatusERZNS0_18WriteUnpreparedTxn6DeleteEPNS0_18ColumnFamilyHandleERKNS0_10SlicePartsEbE3$_0JEET_St14__invoke_otherOT0_DpOT1_"(ptr dead_on_unwind noalias writable sret(%"class.rocksdb::Status") align 8 %0, ptr noundef nonnull align 8 dereferenceable(32) %1) #5 {
  %3 = alloca ptr, align 8
  %4 = alloca ptr, align 8
  store ptr %0, ptr %3, align 8
  store ptr %1, ptr %4, align 8, !tbaa !32
  %5 = load ptr, ptr %4, align 8, !tbaa !32
  call void @"_ZZN7rocksdb18WriteUnpreparedTxn6DeleteEPNS_18ColumnFamilyHandleERKNS_10SlicePartsEbENK3$_0clEv"(ptr dead_on_unwind writable sret(%"class.rocksdb::Status") align 8 %0, ptr noundef nonnull align 8 dereferenceable(32) %5)
  ret void
}

; Function Attrs: mustprogress nounwind uwtable
define internal noundef nonnull align 8 dereferenceable(8) ptr @"_ZNKSt9_Any_data9_M_accessIPZN7rocksdb18WriteUnpreparedTxn6DeleteEPNS1_18ColumnFamilyHandleERKNS1_10SlicePartsEbE3$_0EERKT_v"(ptr noundef nonnull align 8 dereferenceable(16) %0) #3 align 2 {
  %2 = alloca ptr, align 8
  store ptr %0, ptr %2, align 8, !tbaa !1219
  %3 = load ptr, ptr %2, align 8
  %4 = call noundef ptr @_ZNKSt9_Any_data9_M_accessEv(ptr noundef nonnull align 8 dereferenceable(16) %3) #4
  ret ptr %4
}

; Function Attrs: mustprogress uwtable
define internal void @"_ZSt10__invoke_rIN7rocksdb6StatusERZNS0_18WriteUnpreparedTxn6DeleteEPNS0_18ColumnFamilyHandleERKNS0_10SlicePartsEbE3$_0JEENSt9enable_ifIX16is_invocable_r_vIT_T0_DpT1_EESB_E4typeEOSC_DpOSD_"(ptr dead_on_unwind noalias writable sret(%"class.rocksdb::Status") align 8 %0, ptr noundef nonnull align 8 dereferenceable(32) %1) #5 {
  %3 = alloca ptr, align 8
  %4 = alloca ptr, align 8
  store ptr %0, ptr %3, align 8
  store ptr %1, ptr %4, align 8, !tbaa !32
  %5 = load ptr, ptr %4, align 8, !tbaa !32
  call void @"_ZSt13__invoke_implIN7rocksdb6StatusERZNS0_18WriteUnpreparedTxn6DeleteEPNS0_18ColumnFamilyHandleERKNS0_10SlicePartsEbE3$_0JEET_St14__invoke_otherOT0_DpOT1_"(ptr dead_on_unwind writable sret(%"class.rocksdb::Status") align 8 %0, ptr noundef nonnull align 8 dereferenceable(32) %5)
  ret void
}

; Function Attrs: mustprogress nounwind uwtable
define internal noundef ptr @"_ZNSt14_Function_base13_Base_managerIZN7rocksdb18WriteUnpreparedTxn6DeleteEPNS1_18ColumnFamilyHandleERKNS1_10SlicePartsEbE3$_0E14_M_get_pointerERKSt9_Any_data"(ptr noundef nonnull align 8 dereferenceable(16) %0) #3 align 2 {
  %2 = alloca ptr, align 8
  store ptr %0, ptr %2, align 8, !tbaa !1219
  %3 = load ptr, ptr %2, align 8, !tbaa !1219
  %4 = call noundef nonnull align 8 dereferenceable(8) ptr @"_ZNKSt9_Any_data9_M_accessIPZN7rocksdb18WriteUnpreparedTxn6DeleteEPNS1_18ColumnFamilyHandleERKNS1_10SlicePartsEbE3$_0EERKT_v"(ptr noundef nonnull align 8 dereferenceable(16) %3) #4
  %5 = load ptr, ptr %4, align 8, !tbaa !32
  ret ptr %5
}

; Function Attrs: mustprogress uwtable
define internal void @"_ZNSt17_Function_handlerIFN7rocksdb6StatusEvEZNS0_18WriteUnpreparedTxn6DeleteEPNS0_18ColumnFamilyHandleERKNS0_10SlicePartsEbE3$_0E9_M_invokeERKSt9_Any_data"(ptr dead_on_unwind noalias writable sret(%"class.rocksdb::Status") align 8 %0, ptr noundef nonnull align 8 dereferenceable(16) %1) #5 align 2 {
  %3 = alloca ptr, align 8
  %4 = alloca ptr, align 8
  store ptr %0, ptr %3, align 8
  store ptr %1, ptr %4, align 8, !tbaa !1219
  %5 = load ptr, ptr %4, align 8, !tbaa !1219
  %6 = call noundef ptr @"_ZNSt14_Function_base13_Base_managerIZN7rocksdb18WriteUnpreparedTxn6DeleteEPNS1_18ColumnFamilyHandleERKNS1_10SlicePartsEbE3$_0E14_M_get_pointerERKSt9_Any_data"(ptr noundef nonnull align 8 dereferenceable(16) %5) #4
  call void @"_ZSt10__invoke_rIN7rocksdb6StatusERZNS0_18WriteUnpreparedTxn6DeleteEPNS0_18ColumnFamilyHandleERKNS0_10SlicePartsEbE3$_0JEENSt9enable_ifIX16is_invocable_r_vIT_T0_DpT1_EESB_E4typeEOSC_DpOSD_"(ptr dead_on_unwind writable sret(%"class.rocksdb::Status") align 8 %0, ptr noundef nonnull align 8 dereferenceable(32) %6)
  ret void
}